target datalayout = "e-m:e-p270:32:32-p271:32:32-p272:64:64-i64:64-i128:128-f80:128-n8:16:32:64-S128"
target triple = "x86_64-pc-linux-gnu"

%struct.tvbuff = type { ptr, ptr, i8, i32, ptr, ptr, i32, i32, i32, i32 }

@g_ascii_table = external constant ptr, align 8

; Function Attrs: inlinehint nounwind null_pointer_is_valid sspstrong uwtable
define internal i32 @compute_offset(ptr noundef %0, i32 noundef %1, ptr noundef %2) #7 {
  %4 = alloca i32, align 4
  %5 = alloca ptr, align 8
  %6 = alloca i32, align 4
  %7 = alloca ptr, align 8
  %8 = alloca i32, align 4
  %9 = alloca i32, align 4
  %10 = alloca i32, align 4
  %11 = alloca i32, align 4
  store ptr %0, ptr %5, align 8
  store i32 %1, ptr %6, align 4
  store ptr %2, ptr %7, align 8
  %12 = load i32, ptr %6, align 4
  %13 = icmp sge i32 %12, 0
  br i1 %13, label %14, label %54

14:                                               ; preds = %3
  call void @llvm.lifetime.start.p0(i64 4, ptr %8) #16
  %15 = load i32, ptr %6, align 4
  %16 = load ptr, ptr %5, align 8
  %17 = getelementptr inbounds nuw %struct.tvbuff, ptr %16, i32 0, i32 6
  %18 = load i32, ptr %17, align 8
  %19 = icmp ule i32 %15, %18
  br i1 %19, label %20, label %21

20:                                               ; preds = %14
  store i32 1, ptr %8, align 4
  br label %22

21:                                               ; preds = %14
  store i32 0, ptr %8, align 4
  br label %22

22:                                               ; preds = %21, %20
  %23 = load i32, ptr %8, align 4
  store i32 %23, ptr %9, align 4
  call void @llvm.lifetime.end.p0(i64 4, ptr %8) #16
  %24 = load i32, ptr %9, align 4
  %25 = sext i32 %24 to i64
  %26 = call i64 @llvm.expect.i64(i64 %25, i64 1)
  %27 = icmp ne i64 %26, 0
  br i1 %27, label %28, label %31

28:                                               ; preds = %22
  %29 = load i32, ptr %6, align 4
  %30 = load ptr, ptr %7, align 8
  store i32 %29, ptr %30, align 4
  br label %53

31:                                               ; preds = %22
  %32 = load i32, ptr %6, align 4
  %33 = load ptr, ptr %5, align 8
  %34 = getelementptr inbounds nuw %struct.tvbuff, ptr %33, i32 0, i32 8
  %35 = load i32, ptr %34, align 8
  %36 = icmp ule i32 %32, %35
  br i1 %36, label %37, label %38

37:                                               ; preds = %31
  store i32 1, ptr %4, align 4
  br label %102

38:                                               ; preds = %31
  %39 = load ptr, ptr %5, align 8
  %40 = getelementptr inbounds nuw %struct.tvbuff, ptr %39, i32 0, i32 3
  %41 = load i32, ptr %40, align 4
  %42 = and i32 %41, 1
  %43 = icmp ne i32 %42, 0
  br i1 %43, label %44, label %45

44:                                               ; preds = %38
  store i32 4, ptr %4, align 4
  br label %102

45:                                               ; preds = %38
  %46 = load i32, ptr %6, align 4
  %47 = load ptr, ptr %5, align 8
  %48 = getelementptr inbounds nuw %struct.tvbuff, ptr %47, i32 0, i32 7
  %49 = load i32, ptr %48, align 4
  %50 = icmp ule i32 %46, %49
  br i1 %50, label %51, label %52

51:                                               ; preds = %45
  store i32 2, ptr %4, align 4
  br label %102

52:                                               ; preds = %45
  store i32 3, ptr %4, align 4
  br label %102

53:                                               ; preds = %28
  br label %101

54:                                               ; preds = %3
  call void @llvm.lifetime.start.p0(i64 4, ptr %10) #16
  %55 = load i32, ptr %6, align 4
  %56 = sub i32 0, %55
  %57 = load ptr, ptr %5, align 8
  %58 = getelementptr inbounds nuw %struct.tvbuff, ptr %57, i32 0, i32 6
  %59 = load i32, ptr %58, align 8
  %60 = icmp ule i32 %56, %59
  br i1 %60, label %61, label %62

61:                                               ; preds = %54
  store i32 1, ptr %10, align 4
  br label %63

62:                                               ; preds = %54
  store i32 0, ptr %10, align 4
  br label %63

63:                                               ; preds = %62, %61
  %64 = load i32, ptr %10, align 4
  store i32 %64, ptr %11, align 4
  call void @llvm.lifetime.end.p0(i64 4, ptr %10) #16
  %65 = load i32, ptr %11, align 4
  %66 = sext i32 %65 to i64
  %67 = call i64 @llvm.expect.i64(i64 %66, i64 1)
  %68 = icmp ne i64 %67, 0
  br i1 %68, label %69, label %76

69:                                               ; preds = %63
  %70 = load ptr, ptr %5, align 8
  %71 = getelementptr inbounds nuw %struct.tvbuff, ptr %70, i32 0, i32 6
  %72 = load i32, ptr %71, align 8
  %73 = load i32, ptr %6, align 4
  %74 = add i32 %72, %73
  %75 = load ptr, ptr %7, align 8
  store i32 %74, ptr %75, align 4
  br label %100

76:                                               ; preds = %63
  %77 = load i32, ptr %6, align 4
  %78 = sub i32 0, %77
  %79 = load ptr, ptr %5, align 8
  %80 = getelementptr inbounds nuw %struct.tvbuff, ptr %79, i32 0, i32 8
  %81 = load i32, ptr %80, align 8
  %82 = icmp ule i32 %78, %81
  br i1 %82, label %83, label %84

83:                                               ; preds = %76
  store i32 1, ptr %4, align 4
  br label %102

84:                                               ; preds = %76
  %85 = load ptr, ptr %5, align 8
  %86 = getelementptr inbounds nuw %struct.tvbuff, ptr %85, i32 0, i32 3
  %87 = load i32, ptr %86, align 4
  %88 = and i32 %87, 1
  %89 = icmp ne i32 %88, 0
  br i1 %89, label %90, label %91

90:                                               ; preds = %84
  store i32 4, ptr %4, align 4
  br label %102

91:                                               ; preds = %84
  %92 = load i32, ptr %6, align 4
  %93 = sub i32 0, %92
  %94 = load ptr, ptr %5, align 8
  %95 = getelementptr inbounds nuw %struct.tvbuff, ptr %94, i32 0, i32 7
  %96 = load i32, ptr %95, align 4
  %97 = icmp ule i32 %93, %96
  br i1 %97, label %98, label %99

98:                                               ; preds = %91
  store i32 2, ptr %4, align 4
  br label %102

99:                                               ; preds = %91
  store i32 3, ptr %4, align 4
  br label %102

100:                                              ; preds = %69
  br label %101

101:                                              ; preds = %100, %53
  store i32 0, ptr %4, align 4
  br label %102

102:                                              ; preds = %101, %99, %98, %90, %83, %52, %51, %44, %37
  %103 = load i32, ptr %4, align 4
  ret i32 %103
}

; Function Attrs: inlinehint null_pointer_is_valid sspstrong uwtable
define internal i32 @compute_offset_and_remaining(ptr noundef %0, i32 noundef %1, ptr noundef %2, ptr noundef %3) #5 {
  %5 = alloca ptr, align 8
  %6 = alloca i32, align 4
  %7 = alloca ptr, align 8
  %8 = alloca ptr, align 8
  %9 = alloca i32, align 4
  store ptr %0, ptr %5, align 8
  store i32 %1, ptr %6, align 4
  store ptr %2, ptr %7, align 8
  store ptr %3, ptr %8, align 8
  call void @llvm.lifetime.start.p0(i64 4, ptr %9) #16
  %10 = load ptr, ptr %5, align 8
  %11 = load i32, ptr %6, align 4
  %12 = load ptr, ptr %7, align 8
  %13 = call i32 @compute_offset(ptr noundef %10, i32 noundef %11, ptr noundef %12)
  store i32 %13, ptr %9, align 4
  %14 = load i32, ptr %9, align 4
  %15 = icmp ne i32 %14, 0
  br i1 %15, label %24, label %16

16:                                               ; preds = %4
  %17 = load ptr, ptr %5, align 8
  %18 = getelementptr inbounds nuw %struct.tvbuff, ptr %17, i32 0, i32 6
  %19 = load i32, ptr %18, align 8
  %20 = load ptr, ptr %7, align 8
  %21 = load i32, ptr %20, align 4
  %22 = sub i32 %19, %21
  %23 = load ptr, ptr %8, align 8
  store i32 %22, ptr %23, align 4
  br label %24

24:                                               ; preds = %16, %4
  %25 = load i32, ptr %9, align 4
  call void @llvm.lifetime.end.p0(i64 4, ptr %9) #16
  ret i32 %25
}

; Function Attrs: null_pointer_is_valid sspstrong uwtable
define ptr @tvb_get_ptr(ptr noundef %0, i32 noundef %1, i32 noundef %2) #0 {
  %4 = alloca ptr, align 8
  %5 = alloca i32, align 4
  %6 = alloca i32, align 4
  store ptr %0, ptr %4, align 8
  store i32 %1, ptr %5, align 4
  store i32 %2, ptr %6, align 4
  %7 = load ptr, ptr %4, align 8
  %8 = load i32, ptr %5, align 4
  %9 = load i32, ptr %6, align 4
  %10 = call ptr @ensure_contiguous(ptr noundef %7, i32 noundef %8, i32 noundef %9)
  ret ptr %10
}

; Function Attrs: null_pointer_is_valid sspstrong uwtable
define zeroext i1 @tvb_ascii_isprint(ptr noundef %0, i32 noundef %1, i32 noundef %2) #0 {
  %4 = alloca i1, align 1
  %5 = alloca ptr, align 8
  %6 = alloca i32, align 4
  %7 = alloca i32, align 4
  %8 = alloca ptr, align 8
  %9 = alloca i32, align 4
  %10 = alloca i32, align 4
  %11 = alloca i32, align 4
  %12 = alloca i32, align 4
  store ptr %0, ptr %5, align 8
  store i32 %1, ptr %6, align 4
  store i32 %2, ptr %7, align 4
  call void @llvm.lifetime.start.p0(i64 8, ptr %8) #16
  %13 = load ptr, ptr %5, align 8
  %14 = load i32, ptr %6, align 4
  %15 = load i32, ptr %7, align 4
  %16 = call ptr @tvb_get_ptr(ptr noundef %13, i32 noundef %14, i32 noundef %15)
  store ptr %16, ptr %8, align 8
  call void @llvm.lifetime.start.p0(i64 4, ptr %9) #16
  call void @llvm.lifetime.start.p0(i64 4, ptr %10) #16
  %17 = load i32, ptr %7, align 4
  store i32 %17, ptr %10, align 4
  %18 = load i32, ptr %7, align 4
  %19 = icmp eq i32 %18, -1
  br i1 %19, label %20, label %24

20:                                               ; preds = %3
  %21 = load ptr, ptr %5, align 8
  %22 = load i32, ptr %6, align 4
  %23 = call i32 @compute_offset_and_remaining(ptr noundef %21, i32 noundef %22, ptr noundef %9, ptr noundef %10)
  br label %24

24:                                               ; preds = %20, %3
  call void @llvm.lifetime.start.p0(i64 4, ptr %11) #16
  store i32 0, ptr %11, align 4
  br label %25

25:                                               ; preds = %42, %24
  %26 = load i32, ptr %11, align 4
  %27 = load i32, ptr %10, align 4
  %28 = icmp ult i32 %26, %27
  br i1 %28, label %30, label %29

29:                                               ; preds = %25
  store i32 2, ptr %12, align 4
  br label %47

30:                                               ; preds = %25
  %31 = load ptr, ptr @g_ascii_table, align 8
  %32 = load ptr, ptr %8, align 8
  %33 = load i8, ptr %32, align 1
  %34 = zext i8 %33 to i64
  %35 = getelementptr i16, ptr %31, i64 %34
  %36 = load i16, ptr %35, align 2
  %37 = zext i16 %36 to i32
  %38 = and i32 %37, 64
  %39 = icmp ne i32 %38, 0
  br i1 %39, label %41, label %40

40:                                               ; preds = %30
  store i1 false, ptr %4, align 1
  store i32 1, ptr %12, align 4
  br label %47

41:                                               ; preds = %30
  br label %42

42:                                               ; preds = %41
  %43 = load i32, ptr %11, align 4
  %44 = add i32 %43, 1
  store i32 %44, ptr %11, align 4
  %45 = load ptr, ptr %8, align 8
  %46 = getelementptr i8, ptr %45, i32 1
  store ptr %46, ptr %8, align 8
  br label %25, !llvm.loop !29

47:                                               ; preds = %40, %29
  call void @llvm.lifetime.end.p0(i64 4, ptr %11) #16
  %48 = load i32, ptr %12, align 4
  switch i32 %48, label %50 [
    i32 2, label %49
  ]

49:                                               ; preds = %47
  store i1 true, ptr %4, align 1
  store i32 1, ptr %12, align 4
  br label %50

50:                                               ; preds = %49, %47
  call void @llvm.lifetime.end.p0(i64 4, ptr %10) #16
  call void @llvm.lifetime.end.p0(i64 4, ptr %9) #16
  call void @llvm.lifetime.end.p0(i64 8, ptr %8) #16
  %51 = load i1, ptr %4, align 1
  ret i1 %51
}