; Function Attrs: null_pointer_is_valid sspstrong uwtable
define noundef zeroext i1 @tvb_ascii_isprint(ptr noundef %0, i32 noundef %1, i32 noundef %2) local_unnamed_addr #0 {
  %4 = tail call fastcc ptr @ensure_contiguous(ptr noundef %0, i32 noundef %1, i32 noundef %2)
  %5 = icmp eq i32 %2, -1
  br i1 %5, label %6, label %compute_offset_and_remaining.exit

6:                                                ; preds = %3
  %7 = icmp sgt i32 %1, -1
  br i1 %7, label %8, label %11

8:                                                ; preds = %6
  %9 = getelementptr inbounds nuw i8, ptr %0, i64 40
  %10 = load i32, ptr %9, align 8
  %.not32.i.i = icmp ugt i32 %1, %10
  br i1 %.not32.i.i, label %.lr.ph, label %17, !prof !11

11:                                               ; preds = %6
  %12 = sub i32 0, %1
  %13 = getelementptr inbounds nuw i8, ptr %0, i64 40
  %14 = load i32, ptr %13, align 8
  %.not.i.i = icmp ult i32 %14, %12
  br i1 %.not.i.i, label %.lr.ph, label %15, !prof !11

15:                                               ; preds = %11
  %16 = add i32 %14, %1
  br label %17

17:                                               ; preds = %15, %8
  %18 = phi i32 [ %14, %15 ], [ %10, %8 ]
  %storemerge.i.i = phi i32 [ %16, %15 ], [ %1, %8 ]
  %19 = sub i32 %18, %storemerge.i.i
  br label %compute_offset_and_remaining.exit

compute_offset_and_remaining.exit:                ; preds = %17, %3
  %.0 = phi i32 [ %2, %3 ], [ %19, %17 ]
  %.not1516 = icmp eq i32 %.0, 0
  br i1 %.not1516, label %.critedge, label %.lr.ph

.lr.ph:                                           ; preds = %11, %8, %compute_offset_and_remaining.exit
  %.024 = phi i32 [ %.0, %compute_offset_and_remaining.exit ], [ -1, %8 ], [ -1, %11 ]
  %20 = load ptr, ptr @g_ascii_table, align 8
  br label %21

21:                                               ; preds = %21, %.lr.ph
  %.01218 = phi i32 [ 0, %.lr.ph ], [ %27, %21 ]
  %.01317 = phi ptr [ %4, %.lr.ph ], [ %28, %21 ]
  %22 = load i8, ptr %.01317, align 1
  %23 = zext i8 %22 to i64
  %24 = getelementptr i16, ptr %20, i64 %23
  %25 = load i16, ptr %24, align 2
  %26 = and i16 %25, 64
  %.not.not = icmp ne i16 %26, 0
  %27 = add nuw i32 %.01218, 1
  %28 = getelementptr i8, ptr %.01317, i64 1
  %exitcond.not = icmp ne i32 %27, %.024
  %or.cond.not = select i1 %.not.not, i1 %exitcond.not, i1 false
  br i1 %or.cond.not, label %21, label %.critedge, !llvm.loop !31

.critedge:                                        ; preds = %21, %compute_offset_and_remaining.exit
  %.not15.lcssa = phi i1 [ true, %compute_offset_and_remaining.exit ], [ %.not.not, %21 ]
  ret i1 %.not15.lcssa
}